TN:
SF:/home/runner/work/jessica/jessica/include/jessica/calc/geotechnical/meyerhof.h
FN:17,_ZN4Calc12Geotechnical26IMeyerhofShallowFoundationD2Ev
FN:17,_ZN4Calc12Geotechnical26IMeyerhofShallowFoundationD0Ev
FN:26,_ZN4Calc12Geotechnical26IMeyerhofShallowFoundationC2Ev
FN:27,_ZN4Calc12Geotechnical26IMeyerhofShallowFoundationC2ERKS1_
FNDA:2,_ZN4Calc12Geotechnical26IMeyerhofShallowFoundationC2Ev
FNDA:1,_ZN4Calc12Geotechnical26IMeyerhofShallowFoundationC2ERKS1_
FNDA:3,_ZN4Calc12Geotechnical26IMeyerhofShallowFoundationD2Ev
FNDA:0,_ZN4Calc12Geotechnical26IMeyerhofShallowFoundationD0Ev
FNF:4
FNH:3
DA:17,3
DA:26,2
DA:27,1
LF:3
LH:3
end_of_record
TN:
SF:/home/runner/work/jessica/jessica/include/jessica/data/geotechnical/foundation_strip.h
FN:13,_ZN4Data12Geotechnical16IFoundationStripD0Ev
FN:13,_ZN4Data12Geotechnical16IFoundationStripD2Ev
FN:21,_ZN4Data12Geotechnical16IFoundationStripC2Ev
FN:22,_ZN4Data12Geotechnical16IFoundationStripC2ERKS1_
FNDA:3,_ZN4Data12Geotechnical16IFoundationStripC2ERKS1_
FNDA:2,_ZN4Data12Geotechnical16IFoundationStripC2Ev
FNDA:0,_ZN4Data12Geotechnical16IFoundationStripD0Ev
FNDA:5,_ZN4Data12Geotechnical16IFoundationStripD2Ev
FNF:4
FNH:3
DA:13,5
DA:21,2
DA:22,3
LF:3
LH:3
end_of_record
TN:
SF:/home/runner/work/jessica/jessica/include/jessica/data/load/vertical_eccentric.h
FN:13,_ZN4Data4Load18IVerticalEccentricD2Ev
FN:13,_ZN4Data4Load18IVerticalEccentricD0Ev
FN:25,_ZN4Data4Load18IVerticalEccentricC2Ev
FN:26,_ZN4Data4Load18IVerticalEccentricC2ERKS1_
FNDA:2,_ZN4Data4Load18IVerticalEccentricC2Ev
FNDA:6,_ZN4Data4Load18IVerticalEccentricC2ERKS1_
FNDA:8,_ZN4Data4Load18IVerticalEccentricD2Ev
FNDA:0,_ZN4Data4Load18IVerticalEccentricD0Ev
FNF:4
FNH:3
DA:13,8
DA:25,2
DA:26,6
LF:3
LH:3
end_of_record
TN:
SF:/home/runner/work/jessica/jessica/src/calc/geotechnical/meyerhof.cc
FN:13,_ZN12_GLOBAL__N_125MeyerhofShallowFoundationC1ERKSt10shared_ptrIN4Data4Load18IVerticalEccentricEERKS1_INS2_12Geotechnical16IFoundationStripEE
FN:19,_ZN12_GLOBAL__N_125MeyerhofShallowFoundationC1ERKS0_
FN:24,_ZN12_GLOBAL__N_125MeyerhofShallowFoundationD1Ev
FN:24,_ZN12_GLOBAL__N_125MeyerhofShallowFoundationD0Ev
FN:26,_ZNK12_GLOBAL__N_125MeyerhofShallowFoundation5CloneEv
FN:32,_ZNK12_GLOBAL__N_125MeyerhofShallowFoundation4QrefEv
FN:36,_ZNK12_GLOBAL__N_125MeyerhofShallowFoundation2B_Ev
FN:50,_ZN4Calc12Geotechnical6Create25MeyerhofShallowFoundationERKSt10shared_ptrIN4Data4Load18IVerticalEccentricEERKS2_INS3_12Geotechnical16IFoundationStripEE
FNDA:1,_ZN12_GLOBAL__N_125MeyerhofShallowFoundationC1ERKS0_
FNDA:2,_ZN12_GLOBAL__N_125MeyerhofShallowFoundationC1ERKSt10shared_ptrIN4Data4Load18IVerticalEccentricEERKS1_INS2_12Geotechnical16IFoundationStripEE
FNDA:1,_ZNK12_GLOBAL__N_125MeyerhofShallowFoundation5CloneEv
FNDA:2,_ZN4Calc12Geotechnical6Create25MeyerhofShallowFoundationERKSt10shared_ptrIN4Data4Load18IVerticalEccentricEERKS2_INS3_12Geotechnical16IFoundationStripEE
FNDA:8,_ZNK12_GLOBAL__N_125MeyerhofShallowFoundation2B_Ev
FNDA:3,_ZN12_GLOBAL__N_125MeyerhofShallowFoundationD1Ev
FNDA:0,_ZN12_GLOBAL__N_125MeyerhofShallowFoundationD0Ev
FNDA:4,_ZNK12_GLOBAL__N_125MeyerhofShallowFoundation4QrefEv
FNF:8
FNH:7
DA:13,2
DA:16,2
DA:18,2
DA:19,1
DA:24,3
DA:26,1
DA:29,1
DA:32,4
DA:34,4
DA:36,8
DA:38,8
DA:50,2
DA:54,2
LF:13
LH:13
end_of_record
TN:
SF:/home/runner/work/jessica/jessica/src/data/geotechnical/foundation_strip.cc
FN:11,_ZN12_GLOBAL__N_115FoundationStripC2Ev
FN:12,_ZN12_GLOBAL__N_115FoundationStripC2ERKS0_
FN:16,_ZN12_GLOBAL__N_115FoundationStripD2Ev
FN:16,_ZN12_GLOBAL__N_115FoundationStripD0Ev
FN:18,_ZNK12_GLOBAL__N_115FoundationStrip5CloneEv
FN:23,_ZNK12_GLOBAL__N_115FoundationStrip1BEv
FN:24,_ZN12_GLOBAL__N_115FoundationStrip1BEd
FN:38,_ZN4Data12Geotechnical6Create15FoundationStripEv
FNDA:2,_ZN4Data12Geotechnical6Create15FoundationStripEv
FNDA:5,_ZN12_GLOBAL__N_115FoundationStripD2Ev
FNDA:0,_ZN12_GLOBAL__N_115FoundationStripD0Ev
FNDA:1,_ZNK12_GLOBAL__N_115FoundationStrip5CloneEv
FNDA:13,_ZNK12_GLOBAL__N_115FoundationStrip1BEv
FNDA:2,_ZN12_GLOBAL__N_115FoundationStrip1BEd
FNDA:3,_ZN12_GLOBAL__N_115FoundationStripC2ERKS0_
FNDA:2,_ZN12_GLOBAL__N_115FoundationStripC2Ev
FNF:8
FNH:7
BRDA:26,0,0,2
BRDA:26,0,1,0
BRF:2
BRH:1
DA:11,2
DA:12,3
DA:16,5
DA:18,1
DA:20,1
DA:23,13
DA:24,2
DA:26,4
DA:27,2
DA:28,4
DA:38,2
DA:40,2
LF:12
LH:12
end_of_record
TN:
SF:/home/runner/work/jessica/jessica/src/data/load/vertical_eccentric.cc
FN:11,_ZN12_GLOBAL__N_117VerticalEccentricC2Ev
FN:12,_ZN12_GLOBAL__N_117VerticalEccentricC2ERKS0_
FN:16,_ZN12_GLOBAL__N_117VerticalEccentricD0Ev
FN:16,_ZN12_GLOBAL__N_117VerticalEccentricD2Ev
FN:18,_ZNK12_GLOBAL__N_117VerticalEccentric5CloneEv
FN:23,_ZNK12_GLOBAL__N_117VerticalEccentric1VEv
FN:24,_ZNK12_GLOBAL__N_117VerticalEccentric1EEv
FN:25,_ZNK12_GLOBAL__N_117VerticalEccentric1VEd
FN:31,_ZNK12_GLOBAL__N_117VerticalEccentric1EEd
FN:46,_ZN4Data4Load6Create17VerticalEccentricEv
FNDA:3,_ZNK12_GLOBAL__N_117VerticalEccentric1EEd
FNDA:6,_ZN12_GLOBAL__N_117VerticalEccentricC2ERKS0_
FNDA:2,_ZN12_GLOBAL__N_117VerticalEccentricC2Ev
FNDA:1,_ZNK12_GLOBAL__N_117VerticalEccentric5CloneEv
FNDA:2,_ZN4Data4Load6Create17VerticalEccentricEv
FNDA:13,_ZNK12_GLOBAL__N_117VerticalEccentric1EEv
FNDA:0,_ZN12_GLOBAL__N_117VerticalEccentricD0Ev
FNDA:8,_ZN12_GLOBAL__N_117VerticalEccentricD2Ev
FNDA:2,_ZNK12_GLOBAL__N_117VerticalEccentric1VEd
FNDA:9,_ZNK12_GLOBAL__N_117VerticalEccentric1VEv
FNF:10
FNH:9
BRDA:27,0,0,2
BRDA:27,0,1,0
BRDA:33,0,0,3
BRDA:33,0,1,0
BRF:4
BRH:2
DA:11,2
DA:12,6
DA:16,8
DA:18,1
DA:20,1
DA:23,9
DA:24,13
DA:25,2
DA:27,4
DA:28,2
DA:29,4
DA:31,3
DA:33,6
DA:34,3
DA:35,6
DA:46,2
DA:48,2
LF:17
LH:17
end_of_record
TN:
SF:/home/runner/work/jessica/jessica/test/calc/geotechnical/meyerhof.cc
FN:9,_ZN21data_CalcMeyehof_TestC2Ev
FN:9,_ZN21data_CalcMeyehof_Test8TestBodyEv
FNDA:1,_ZN21data_CalcMeyehof_TestC2Ev
FNDA:1,_ZN21data_CalcMeyehof_Test8TestBodyEv
FNF:2
FNH:2
BRDA:11,0,0,1
BRDA:11,0,1,0
BRDA:11,0,2,1
BRDA:11,0,3,0
BRDA:13,0,0,1
BRDA:13,0,1,0
BRDA:13,0,2,1
BRDA:13,0,3,0
BRDA:13,0,4,1
BRDA:13,0,5,0
BRDA:15,0,0,1
BRDA:15,0,1,0
BRDA:16,0,0,1
BRDA:16,0,1,0
BRDA:16,0,2,0
BRDA:16,0,3,1
BRDA:16,0,4,0
BRDA:16,0,5,0
BRDA:16,0,6,0
BRDA:16,0,7,0
BRDA:16,0,8,0
BRDA:16,0,9,0
BRDA:17,0,0,1
BRDA:17,0,1,0
BRDA:17,0,2,0
BRDA:17,0,3,1
BRDA:17,0,4,0
BRDA:17,0,5,0
BRDA:17,0,6,0
BRDA:17,0,7,0
BRDA:17,0,8,0
BRDA:17,0,9,0
BRDA:18,0,0,1
BRDA:18,0,1,0
BRDA:20,0,0,1
BRDA:20,0,1,0
BRDA:21,0,0,1
BRDA:21,0,1,0
BRDA:21,0,2,0
BRDA:21,0,3,1
BRDA:21,0,4,0
BRDA:21,0,5,0
BRDA:21,0,6,0
BRDA:21,0,7,0
BRDA:21,0,8,0
BRDA:21,0,9,0
BRDA:22,0,0,0
BRDA:22,0,1,1
BRDA:22,0,2,0
BRDA:22,0,3,0
BRDA:22,0,4,0
BRDA:22,0,5,0
BRDA:22,0,6,0
BRDA:22,0,7,0
BRDA:22,0,8,0
BRDA:22,0,9,0
BRDA:23,0,0,1
BRDA:23,0,1,0
BRDA:24,0,0,1
BRDA:24,0,1,0
BRDA:24,0,2,0
BRDA:24,0,3,1
BRDA:24,0,4,0
BRDA:24,0,5,0
BRDA:24,0,6,0
BRDA:24,0,7,0
BRDA:24,0,8,0
BRDA:24,0,9,0
BRDA:25,0,0,1
BRDA:25,0,1,0
BRDA:25,0,2,0
BRDA:25,0,3,1
BRDA:25,0,4,0
BRDA:25,0,5,0
BRDA:25,0,6,0
BRDA:25,0,7,0
BRDA:25,0,8,0
BRDA:25,0,9,0
BRF:78
BRH:20
DA:9,2
DA:11,2
DA:13,3
DA:15,2
DA:16,1
DA:17,1
DA:18,2
DA:20,2
DA:21,1
DA:22,1
DA:23,2
DA:24,1
DA:25,1
DA:26,1
LF:14
LH:14
end_of_record
TN:
SF:/home/runner/work/jessica/jessica/test/data/geotechnical/foundation_strip.cc
FN:7,_ZN25data_FoundationStrip_TestC2Ev
FN:7,_ZN25data_FoundationStrip_Test8TestBodyEv
FNDA:1,_ZN25data_FoundationStrip_TestC2Ev
FNDA:1,_ZN25data_FoundationStrip_Test8TestBodyEv
FNF:2
FNH:2
BRDA:9,0,0,1
BRDA:9,0,1,0
BRDA:10,0,0,0
BRDA:10,0,1,1
BRDA:10,0,2,0
BRDA:10,0,3,0
BRDA:10,0,4,0
BRDA:10,0,5,0
BRDA:10,0,6,0
BRDA:10,0,7,0
BRDA:10,0,8,0
BRDA:10,0,9,0
BRDA:11,0,0,1
BRDA:11,0,1,0
BRDA:12,0,0,0
BRDA:12,0,1,1
BRDA:12,0,2,0
BRDA:12,0,3,0
BRDA:12,0,4,0
BRDA:12,0,5,0
BRDA:12,0,6,0
BRDA:12,0,7,0
BRDA:12,0,8,0
BRDA:12,0,9,0
BRDA:13,0,0,1
BRDA:13,0,1,0
BRDA:13,0,2,0
BRDA:13,0,3,1
BRDA:13,0,4,0
BRDA:13,0,5,0
BRDA:13,0,6,0
BRDA:13,0,7,0
BRDA:13,0,8,0
BRDA:13,0,9,0
BRDA:14,0,0,1
BRDA:14,0,1,0
BRDA:15,0,0,1
BRDA:15,0,1,0
BRDA:15,0,2,0
BRDA:15,0,3,1
BRDA:15,0,4,0
BRDA:15,0,5,0
BRDA:15,0,6,0
BRDA:15,0,7,0
BRDA:15,0,8,0
BRDA:15,0,9,0
BRF:46
BRH:9
DA:7,2
DA:9,2
DA:10,1
DA:11,2
DA:12,1
DA:13,1
DA:14,2
DA:15,1
DA:16,1
LF:9
LH:9
end_of_record
TN:
SF:/home/runner/work/jessica/jessica/test/data/load/vertical_eccentric.cc
FN:7,_ZN27data_VerticalEccentric_TestC2Ev
FN:7,_ZN27data_VerticalEccentric_Test8TestBodyEv
FNDA:1,_ZN27data_VerticalEccentric_TestC2Ev
FNDA:1,_ZN27data_VerticalEccentric_Test8TestBodyEv
FNF:2
FNH:2
BRDA:9,0,0,1
BRDA:9,0,1,0
BRDA:10,0,0,0
BRDA:10,0,1,1
BRDA:10,0,2,0
BRDA:10,0,3,0
BRDA:10,0,4,0
BRDA:10,0,5,0
BRDA:10,0,6,0
BRDA:10,0,7,0
BRDA:10,0,8,0
BRDA:10,0,9,0
BRDA:11,0,0,0
BRDA:11,0,1,1
BRDA:11,0,2,0
BRDA:11,0,3,0
BRDA:11,0,4,0
BRDA:11,0,5,0
BRDA:11,0,6,0
BRDA:11,0,7,0
BRDA:11,0,8,0
BRDA:11,0,9,0
BRDA:12,0,0,1
BRDA:12,0,1,0
BRDA:13,0,0,0
BRDA:13,0,1,1
BRDA:13,0,2,0
BRDA:13,0,3,0
BRDA:13,0,4,0
BRDA:13,0,5,0
BRDA:13,0,6,0
BRDA:13,0,7,0
BRDA:13,0,8,0
BRDA:13,0,9,0
BRDA:14,0,0,1
BRDA:14,0,1,0
BRDA:14,0,2,0
BRDA:14,0,3,1
BRDA:14,0,4,0
BRDA:14,0,5,0
BRDA:14,0,6,0
BRDA:14,0,7,0
BRDA:14,0,8,0
BRDA:14,0,9,0
BRDA:15,0,0,1
BRDA:15,0,1,0
BRDA:16,0,0,1
BRDA:16,0,1,0
BRDA:16,0,2,0
BRDA:16,0,3,1
BRDA:16,0,4,0
BRDA:16,0,5,0
BRDA:16,0,6,0
BRDA:16,0,7,0
BRDA:16,0,8,0
BRDA:16,0,9,0
BRDA:17,0,0,1
BRDA:17,0,1,0
BRDA:17,0,2,0
BRDA:17,0,3,1
BRDA:17,0,4,0
BRDA:17,0,5,0
BRDA:17,0,6,0
BRDA:17,0,7,0
BRDA:17,0,8,0
BRDA:17,0,9,0
BRDA:18,0,0,1
BRDA:18,0,1,0
BRDA:19,0,0,1
BRDA:19,0,1,0
BRDA:19,0,2,0
BRDA:19,0,3,1
BRDA:19,0,4,0
BRDA:19,0,5,0
BRDA:19,0,6,0
BRDA:19,0,7,0
BRDA:19,0,8,0
BRDA:19,0,9,0
BRDA:20,0,0,1
BRDA:20,0,1,0
BRDA:20,0,2,0
BRDA:20,0,3,1
BRDA:20,0,4,0
BRDA:20,0,5,0
BRDA:20,0,6,0
BRDA:20,0,7,0
BRDA:20,0,8,0
BRDA:20,0,9,0
BRF:88
BRH:17
DA:7,2
DA:9,2
DA:10,1
DA:11,1
DA:12,2
DA:13,1
DA:14,1
DA:15,2
DA:16,1
DA:17,1
DA:18,2
DA:19,1
DA:20,1
DA:21,1
LF:14
LH:14
end_of_record
